Certificate:
    Data:
        Version: 1 (0x0)
        Serial Number: 7 (0x7)
        Signature Algorithm: sha1WithRSAEncryption
        Issuer: O=CodeLathe LLC, L=Dallas, ST=Texas, C=US, CN=codelathe.com
        Validity
            Not Before: Sep 14 05:23:01 2008 GMT
            Not After : Jun 11 05:23:01 2011 GMT
        Subject: C=US, ST=Texas, O=CodeLathe LLC, CN=*.tonido.com
        Subject Public Key Info:
            Public Key Algorithm: rsaEncryption
            RSA Public Key: (1024 bit)
                Modulus (1024 bit):
                    00:e5:0f:f1:99:32:0e:d2:f0:f7:75:8b:dc:f4:40:
                    f7:32:7d:f4:40:ca:90:60:16:5f:fe:8c:e3:92:a2:
                    73:be:54:bb:6a:c3:60:16:33:f5:4f:2a:8a:1c:34:
                    aa:33:59:32:2b:9a:e1:42:80:2b:05:70:a9:70:0b:
                    ad:8f:84:46:ef:c9:87:42:3c:4e:ef:c2:fb:3d:02:
                    0f:50:cd:7d:4e:48:e0:c5:01:b6:d5:b6:75:db:fb:
                    90:64:85:33:a8:48:05:6b:53:cb:02:96:a4:35:cc:
                    4b:7d:c8:bc:c8:b3:c0:67:54:d6:aa:22:d3:dd:61:
                    e4:c6:05:fa:ad:c1:fc:a8:17
                Exponent: 65537 (0x10001)
        X509v3 extensions:
            X509v3 Basic Constraints: 
                CA:FALSE
            X509v3 Subject Key Identifier: 
                2F:57:A0:B7:87:7D:26:13:F5:CF:A5:9B:57:E2:AB:74:6A:69:7F:77
            X509v3 Subject Alternative Name: 
                IP Address:127.0.0.1
    Signature Algorithm: sha1WithRSAEncryption
        9e:d6:3c:c8:fb:79:ad:b7:1e:12:64:82:11:a3:03:e0:bf:56:
        05:19:c7:9f:5f:cc:d5:da:94:4c:79:27:1e:49:5e:14:36:59:
        ac:43:54:8c:14:e4:55:35:a6:89:1b:64:da:cc:5a:03:0a:f2:
        8c:88:0a:cb:04:21:0c:28:9c:cf:ce:8c:ae:02:96:c3:64:24:
        5f:3e:f4:17:a1:eb:00:15:03:b5:3f:d5:75:e8:61:46:ba:5b:
        fc:d1:2b:9b:33:ed:d4:57:99:e3:d6:ff:81:5b:75:bb:3e:23:
        22:79:ff:11:fb:a0:cd:4d:b0:26:bb:ea:71:5b:9e:3e:3c:df:
        85:cc
-----BEGIN CERTIFICATE-----
MIICWDCCAcECAQcwDQYJKoZIhvcNAQEFBQAwXjEWMBQGA1UEChMNQ29kZUxhdGhl
IExMQzEPMA0GA1UEBxMGRGFsbGFzMQ4wDAYDVQQIEwVUZXhhczELMAkGA1UEBhMC
VVMxFjAUBgNVBAMTDWNvZGVsYXRoZS5jb20wHhcNMDgwOTE0MDUyMzAxWhcNMTEw
NjExMDUyMzAxWjBMMQswCQYDVQQGEwJVUzEOMAwGA1UECBMFVGV4YXMxFjAUBgNV
BAoTDUNvZGVMYXRoZSBMTEMxFTATBgNVBAMUDCoudG9uaWRvLmNvbTCBnzANBgkq
hkiG9w0BAQEFAAOBjQAwgYkCgYEA5Q/xmTIO0vD3dYvc9ED3Mn30QMqQYBZf/ozj
kqJzvlS7asNgFjP1TyqKHDSqM1kyK5rhQoArBXCpcAutj4RG78mHQjxO78L7PQIP
UM19TkjgxQG21bZ12/uQZIUzqEgFa1PLApakNcxLfci8yLPAZ1TWqiLT3WHkxgX6
rcH8qBcCAwEAAaM9MDswCQYDVR0TBAIwADAdBgNVHQ4EFgQUL1egt4d9JhP1z6Wb
V+KrdGppf3cwDwYDVR0RBAgwBocEfwAAATANBgkqhkiG9w0BAQUFAAOBgQCe1jzI
+3mttx4SZIIRowPgv1YFGcefX8zV2pRMeSceSV4UNlmsQ1SMFORVNaaJG2TazFoD
CvKMiArLBCEMKJzPzoyuApbDZCRfPvQXoesAFQO1P9V16GFGulv80SubM+3UV5nj
1v+BW3W7PiMief8R+6DNTbAmu+pxW54+PN+FzA==
-----END CERTIFICATE-----
-----BEGIN RSA PRIVATE KEY-----
Proc-Type: 4,ENCRYPTED
DEK-Info: DES-EDE3-CBC,D4924FE09AB8CCC6

up8pxg61puIwQqOtFezcru689QqDmaNZVgpQBBKdaq03o3FGkXcJidMXyrQxk/8Q
fuPhcnQTWSovyTaojE7Z/lvcN1IhG49CAs9H02cQKAhhATfwEURZPVzb/Xu872cW
dPsjFgDGzWKN9q0ZiYYfAUU7bYJSdKk+w04XMkvDQS3XtcB1bJmjZpOLCbSiLLlS
ixAYPNIouFMTOLf30uBTU0XTtf/NQQVyteDnmTNOTdzZotkfahZIgUknMvV25B6K
Z80aV8JoDp42Jf+hdhbpvNV6KvgtxUEXib3UFG2Py1IHxCuHP7z1LBtejBtYPh6c
emP1xfMFO+cqQ9J0A/z81jojOo+VDqY4ISidFRBjWkPCK93pdBqMyxhdKCnalmzG
ry6Fe9JfCYCd8Oy8evo9eg5oMkr7gODhUWT4aE59mEAAnXW/uIFfvwNzWu05iD54
CSOWCufFPV0j9TzRZsLK2eoFzGWZtL8zcGFa78g6uf7KWrK9aLKcGH3HxGGDzj+4
j0giR3MyNKYPHA/nlfhrouN0H5C0GuqVE6GEBsM/v0aDlw9asVap6tAqRYTC8b8B
5YmPRLpX6SfzreXpwtByL2mbdQDVmlQ06HnKHp4xjGRc022mQ5dX3zcxLW1VUkKd
AJYx9Zbh85xVP/Ln1jpEcbzZLwbQPbwuysMV0uNkLdeYbQ0O6bg3k4qLg76PFs3G
Px+y/U3UwCOCa1KUAiCEG6KvEIDbUSrgq/lh6E7OlYXTwbzDe+Jc5eFAQUYJ4quX
rkuJe0Iu4z5hZ2FGREv5Y9Cbotukpy04S2iFJGFI9OnngtQxNaU8Yg==
-----END RSA PRIVATE KEY-----
-----BEGIN CERTIFICATE-----
MIIC/jCCAmegAwIBAgIJALz15O8OHiD2MA0GCSqGSIb3DQEBBQUAMF4xFjAUBgNV
BAoTDUNvZGVMYXRoZSBMTEMxDzANBgNVBAcTBkRhbGxhczEOMAwGA1UECBMFVGV4
YXMxCzAJBgNVBAYTAlVTMRYwFAYDVQQDEw1jb2RlbGF0aGUuY29tMB4XDTA4MDkx
MzA0MTUzOFoXDTE4MDkxMTA0MTUzOFowXjEWMBQGA1UEChMNQ29kZUxhdGhlIExM
QzEPMA0GA1UEBxMGRGFsbGFzMQ4wDAYDVQQIEwVUZXhhczELMAkGA1UEBhMCVVMx
FjAUBgNVBAMTDWNvZGVsYXRoZS5jb20wgZ8wDQYJKoZIhvcNAQEBBQADgY0AMIGJ
AoGBAPu9DhigS8h/PQm0ho8sM0Sc2oKOnMFfznWmSsbKO+V6oxOsCVIJVblPBqGQ
A6TUZsKBiRfEBmGui2DJRV30QkG7wJxj5a+ykdJGmUEmSTGup2w6KzE9A9xLapyM
VGN17B7sV5y3li7RuMmvpRCnVPyywlX5BEoY+i9992xNYBN/AgMBAAGjgcMwgcAw
DAYDVR0TBAUwAwEB/zAdBgNVHQ4EFgQUy/hYtJNqpDN9PmBdbQqoOtN2QUYwgZAG
A1UdIwSBiDCBhYAUy/hYtJNqpDN9PmBdbQqoOtN2QUahYqRgMF4xFjAUBgNVBAoT
DUNvZGVMYXRoZSBMTEMxDzANBgNVBAcTBkRhbGxhczEOMAwGA1UECBMFVGV4YXMx
CzAJBgNVBAYTAlVTMRYwFAYDVQQDEw1jb2RlbGF0aGUuY29tggkAvPXk7w4eIPYw
DQYJKoZIhvcNAQEFBQADgYEAHXMaMGMJSC7b36UxzhN72VZbCl8KMMmKOEqTSRtq
LoZnCQbSW72U8rsfxzIsTiG0yMwWC0Bv0fSzK+t+7sGH0rRKu6U93fojA4LgRWQx
M4oxAoJYSNFuqQOjhjkNEePuRMp8MraA6WnjqU7HgAHWsfvuxecMmR4SN5kcmliG
jFE=
-----END CERTIFICATE-----
